; Function Attrs: mustprogress nounwind uwtable
define internal fastcc void @_ZNSt10unique_ptrIN12_GLOBAL__N_112ObjectKeeperESt14default_deleteIS1_EED2Ev(ptr noundef nonnull align 8 captures(none) dereferenceable(8) %0) unnamed_addr #5 align 2 personality ptr @__gxx_personality_v0 {
  %2 = load ptr, ptr %0, align 8, !tbaa !99
  %.not = icmp eq ptr %2, null
  br i1 %.not, label %8, label %3

3:                                                ; preds = %1
  %.val.i = load ptr, ptr %2, align 8, !tbaa !97
  %4 = invoke ptr @proj_destroy(ptr noundef %.val.i)
          to label %_ZNKSt14default_deleteIN12_GLOBAL__N_112ObjectKeeperEEclEPS1_.exit unwind label %5

5:                                                ; preds = %3
  %6 = landingpad { ptr, i32 }
          catch ptr null
  %7 = extractvalue { ptr, i32 } %6, 0
  tail call void @__clang_call_terminate(ptr %7) #23
  unreachable

_ZNKSt14default_deleteIN12_GLOBAL__N_112ObjectKeeperEEclEPS1_.exit: ; preds = %3
  tail call void @_ZdlPvm(ptr noundef nonnull %2, i64 noundef 8) #22
  br label %8

8:                                                ; preds = %_ZNKSt14default_deleteIN12_GLOBAL__N_112ObjectKeeperEEclEPS1_.exit, %1
  store ptr null, ptr %0, align 8, !tbaa !99
  ret void
}